; ModuleID = '14/73.c'
source_filename = "14/73.c"
target datalayout = "e-m:e-p270:32:32-p271:32:32-p272:64:64-i64:64-f80:128-n8:16:32:64-S128"
target triple = "x86_64-pc-linux-gnu"

%struct.student = type { i32, i32, i32, i32 }

@.str = private unnamed_addr constant [3 x i8] c"%d\00", align 1
@.str.1 = private unnamed_addr constant [10 x i8] c"%d %d %d\0A\00", align 1
@.str.2 = private unnamed_addr constant [7 x i8] c"%d %d\0A\00", align 1

; Function Attrs: noinline nounwind uwtable
define dso_local i32 @main() #0 {
  %1 = alloca i32, align 4
  %2 = alloca [100000 x %struct.student], align 16
  %3 = alloca [3 x %struct.student], align 16
  %4 = alloca i32, align 4
  %5 = alloca i32, align 4
  store i32 0, i32* %1, align 4
  %6 = bitcast [3 x %struct.student]* %3 to i8*
  call void @llvm.memset.p0i8.i64(i8* align 16 %6, i8 0, i64 48, i1 false)
  %7 = call i32 (i8*, ...) @__isoc99_scanf(i8* getelementptr inbounds ([3 x i8], [3 x i8]* @.str, i64 0, i64 0), i32* %4)
  store i32 0, i32* %5, align 4
  br label %8

8:                                                ; preds = %41, %0
  %9 = load i32, i32* %5, align 4
  %10 = load i32, i32* %4, align 4
  %11 = icmp slt i32 %9, %10
  br i1 %11, label %12, label %44

12:                                               ; preds = %8
  %13 = load i32, i32* %5, align 4
  %14 = sext i32 %13 to i64
  %15 = getelementptr inbounds [100000 x %struct.student], [100000 x %struct.student]* %2, i64 0, i64 %14
  %16 = getelementptr inbounds %struct.student, %struct.student* %15, i32 0, i32 0
  %17 = load i32, i32* %5, align 4
  %18 = sext i32 %17 to i64
  %19 = getelementptr inbounds [100000 x %struct.student], [100000 x %struct.student]* %2, i64 0, i64 %18
  %20 = getelementptr inbounds %struct.student, %struct.student* %19, i32 0, i32 1
  %21 = load i32, i32* %5, align 4
  %22 = sext i32 %21 to i64
  %23 = getelementptr inbounds [100000 x %struct.student], [100000 x %struct.student]* %2, i64 0, i64 %22
  %24 = getelementptr inbounds %struct.student, %struct.student* %23, i32 0, i32 2
  %25 = call i32 (i8*, ...) @__isoc99_scanf(i8* getelementptr inbounds ([10 x i8], [10 x i8]* @.str.1, i64 0, i64 0), i32* %16, i32* %20, i32* %24)
  %26 = load i32, i32* %5, align 4
  %27 = sext i32 %26 to i64
  %28 = getelementptr inbounds [100000 x %struct.student], [100000 x %struct.student]* %2, i64 0, i64 %27
  %29 = getelementptr inbounds %struct.student, %struct.student* %28, i32 0, i32 1
  %30 = load i32, i32* %29, align 4
  %31 = load i32, i32* %5, align 4
  %32 = sext i32 %31 to i64
  %33 = getelementptr inbounds [100000 x %struct.student], [100000 x %struct.student]* %2, i64 0, i64 %32
  %34 = getelementptr inbounds %struct.student, %struct.student* %33, i32 0, i32 2
  %35 = load i32, i32* %34, align 8
  %36 = add nsw i32 %30, %35
  %37 = load i32, i32* %5, align 4
  %38 = sext i32 %37 to i64
  %39 = getelementptr inbounds [100000 x %struct.student], [100000 x %struct.student]* %2, i64 0, i64 %38
  %40 = getelementptr inbounds %struct.student, %struct.student* %39, i32 0, i32 3
  store i32 %36, i32* %40, align 4
  br label %41

41:                                               ; preds = %12
  %42 = load i32, i32* %5, align 4
  %43 = add nsw i32 %42, 1
  store i32 %43, i32* %5, align 4
  br label %8

44:                                               ; preds = %8
  store i32 0, i32* %5, align 4
  br label %45

45:                                               ; preds = %67, %44
  %46 = load i32, i32* %5, align 4
  %47 = load i32, i32* %4, align 4
  %48 = icmp slt i32 %46, %47
  br i1 %48, label %49, label %70

49:                                               ; preds = %45
  %50 = load i32, i32* %5, align 4
  %51 = sext i32 %50 to i64
  %52 = getelementptr inbounds [100000 x %struct.student], [100000 x %struct.student]* %2, i64 0, i64 %51
  %53 = getelementptr inbounds %struct.student, %struct.student* %52, i32 0, i32 3
  %54 = load i32, i32* %53, align 4
  %55 = getelementptr inbounds [3 x %struct.student], [3 x %struct.student]* %3, i64 0, i64 1
  %56 = getelementptr inbounds %struct.student, %struct.student* %55, i32 0, i32 3
  %57 = load i32, i32* %56, align 4
  %58 = icmp sgt i32 %54, %57
  br i1 %58, label %59, label %66

59:                                               ; preds = %49
  %60 = getelementptr inbounds [3 x %struct.student], [3 x %struct.student]* %3, i64 0, i64 1
  %61 = load i32, i32* %5, align 4
  %62 = sext i32 %61 to i64
  %63 = getelementptr inbounds [100000 x %struct.student], [100000 x %struct.student]* %2, i64 0, i64 %62
  %64 = bitcast %struct.student* %60 to i8*
  %65 = bitcast %struct.student* %63 to i8*
  call void @llvm.memcpy.p0i8.p0i8.i64(i8* align 16 %64, i8* align 16 %65, i64 16, i1 false)
  br label %66

66:                                               ; preds = %59, %49
  br label %67

67:                                               ; preds = %66
  %68 = load i32, i32* %5, align 4
  %69 = add nsw i32 %68, 1
  store i32 %69, i32* %5, align 4
  br label %45

70:                                               ; preds = %45
  store i32 0, i32* %5, align 4
  br label %71

71:                                               ; preds = %113, %70
  %72 = load i32, i32* %5, align 4
  %73 = load i32, i32* %4, align 4
  %74 = icmp slt i32 %72, %73
  br i1 %74, label %75, label %116

75:                                               ; preds = %71
  %76 = load i32, i32* %5, align 4
  %77 = sext i32 %76 to i64
  %78 = getelementptr inbounds [100000 x %struct.student], [100000 x %struct.student]* %2, i64 0, i64 %77
  %79 = getelementptr inbounds %struct.student, %struct.student* %78, i32 0, i32 3
  %80 = load i32, i32* %79, align 4
  %81 = getelementptr inbounds [3 x %struct.student], [3 x %struct.student]* %3, i64 0, i64 2
  %82 = getelementptr inbounds %struct.student, %struct.student* %81, i32 0, i32 3
  %83 = load i32, i32* %82, align 4
  %84 = icmp sgt i32 %80, %83
  br i1 %84, label %85, label %112

85:                                               ; preds = %75
  %86 = load i32, i32* %5, align 4
  %87 = sext i32 %86 to i64
  %88 = getelementptr inbounds [100000 x %struct.student], [100000 x %struct.student]* %2, i64 0, i64 %87
  %89 = getelementptr inbounds %struct.student, %struct.student* %88, i32 0, i32 3
  %90 = load i32, i32* %89, align 4
  %91 = getelementptr inbounds [3 x %struct.student], [3 x %struct.student]* %3, i64 0, i64 1
  %92 = getelementptr inbounds %struct.student, %struct.student* %91, i32 0, i32 3
  %93 = load i32, i32* %92, align 4
  %94 = icmp sle i32 %90, %93
  br i1 %94, label %95, label %112

95:                                               ; preds = %85
  %96 = load i32, i32* %5, align 4
  %97 = sext i32 %96 to i64
  %98 = getelementptr inbounds [100000 x %struct.student], [100000 x %struct.student]* %2, i64 0, i64 %97
  %99 = getelementptr inbounds %struct.student, %struct.student* %98, i32 0, i32 0
  %100 = load i32, i32* %99, align 16
  %101 = getelementptr inbounds [3 x %struct.student], [3 x %struct.student]* %3, i64 0, i64 1
  %102 = getelementptr inbounds %struct.student, %struct.student* %101, i32 0, i32 0
  %103 = load i32, i32* %102, align 16
  %104 = icmp ne i32 %100, %103
  br i1 %104, label %105, label %112

105:                                              ; preds = %95
  %106 = getelementptr inbounds [3 x %struct.student], [3 x %struct.student]* %3, i64 0, i64 2
  %107 = load i32, i32* %5, align 4
  %108 = sext i32 %107 to i64
  %109 = getelementptr inbounds [100000 x %struct.student], [100000 x %struct.student]* %2, i64 0, i64 %108
  %110 = bitcast %struct.student* %106 to i8*
  %111 = bitcast %struct.student* %109 to i8*
  call void @llvm.memcpy.p0i8.p0i8.i64(i8* align 16 %110, i8* align 16 %111, i64 16, i1 false)
  br label %112

112:                                              ; preds = %105, %95, %85, %75
  br label %113

113:                                              ; preds = %112
  %114 = load i32, i32* %5, align 4
  %115 = add nsw i32 %114, 1
  store i32 %115, i32* %5, align 4
  br label %71

116:                                              ; preds = %71
  store i32 0, i32* %5, align 4
  br label %117

117:                                              ; preds = %169, %116
  %118 = load i32, i32* %5, align 4
  %119 = load i32, i32* %4, align 4
  %120 = icmp slt i32 %118, %119
  br i1 %120, label %121, label %172

121:                                              ; preds = %117
  %122 = load i32, i32* %5, align 4
  %123 = sext i32 %122 to i64
  %124 = getelementptr inbounds [100000 x %struct.student], [100000 x %struct.student]* %2, i64 0, i64 %123
  %125 = getelementptr inbounds %struct.student, %struct.student* %124, i32 0, i32 3
  %126 = load i32, i32* %125, align 4
  %127 = getelementptr inbounds [3 x %struct.student], [3 x %struct.student]* %3, i64 0, i64 3
  %128 = getelementptr inbounds %struct.student, %struct.student* %127, i32 0, i32 3
  %129 = load i32, i32* %128, align 4
  %130 = icmp sgt i32 %126, %129
  br i1 %130, label %131, label %168

131:                                              ; preds = %121
  %132 = load i32, i32* %5, align 4
  %133 = sext i32 %132 to i64
  %134 = getelementptr inbounds [100000 x %struct.student], [100000 x %struct.student]* %2, i64 0, i64 %133
  %135 = getelementptr inbounds %struct.student, %struct.student* %134, i32 0, i32 3
  %136 = load i32, i32* %135, align 4
  %137 = getelementptr inbounds [3 x %struct.student], [3 x %struct.student]* %3, i64 0, i64 2
  %138 = getelementptr inbounds %struct.student, %struct.student* %137, i32 0, i32 3
  %139 = load i32, i32* %138, align 4
  %140 = icmp sle i32 %136, %139
  br i1 %140, label %141, label %168

141:                                              ; preds = %131
  %142 = load i32, i32* %5, align 4
  %143 = sext i32 %142 to i64
  %144 = getelementptr inbounds [100000 x %struct.student], [100000 x %struct.student]* %2, i64 0, i64 %143
  %145 = getelementptr inbounds %struct.student, %struct.student* %144, i32 0, i32 0
  %146 = load i32, i32* %145, align 16
  %147 = getelementptr inbounds [3 x %struct.student], [3 x %struct.student]* %3, i64 0, i64 2
  %148 = getelementptr inbounds %struct.student, %struct.student* %147, i32 0, i32 0
  %149 = load i32, i32* %148, align 16
  %150 = icmp ne i32 %146, %149
  br i1 %150, label %151, label %168

151:                                              ; preds = %141
  %152 = load i32, i32* %5, align 4
  %153 = sext i32 %152 to i64
  %154 = getelementptr inbounds [100000 x %struct.student], [100000 x %struct.student]* %2, i64 0, i64 %153
  %155 = getelementptr inbounds %struct.student, %struct.student* %154, i32 0, i32 0
  %156 = load i32, i32* %155, align 16
  %157 = getelementptr inbounds [3 x %struct.student], [3 x %struct.student]* %3, i64 0, i64 1
  %158 = getelementptr inbounds %struct.student, %struct.student* %157, i32 0, i32 0
  %159 = load i32, i32* %158, align 16
  %160 = icmp ne i32 %156, %159
  br i1 %160, label %161, label %168

161:                                              ; preds = %151
  %162 = getelementptr inbounds [3 x %struct.student], [3 x %struct.student]* %3, i64 0, i64 3
  %163 = load i32, i32* %5, align 4
  %164 = sext i32 %163 to i64
  %165 = getelementptr inbounds [100000 x %struct.student], [100000 x %struct.student]* %2, i64 0, i64 %164
  %166 = bitcast %struct.student* %162 to i8*
  %167 = bitcast %struct.student* %165 to i8*
  call void @llvm.memcpy.p0i8.p0i8.i64(i8* align 16 %166, i8* align 16 %167, i64 16, i1 false)
  br label %168

168:                                              ; preds = %161, %151, %141, %131, %121
  br label %169

169:                                              ; preds = %168
  %170 = load i32, i32* %5, align 4
  %171 = add nsw i32 %170, 1
  store i32 %171, i32* %5, align 4
  br label %117

172:                                              ; preds = %117
  store i32 1, i32* %5, align 4
  br label %173

173:                                              ; preds = %188, %172
  %174 = load i32, i32* %5, align 4
  %175 = icmp slt i32 %174, 4
  br i1 %175, label %176, label %191

176:                                              ; preds = %173
  %177 = load i32, i32* %5, align 4
  %178 = sext i32 %177 to i64
  %179 = getelementptr inbounds [3 x %struct.student], [3 x %struct.student]* %3, i64 0, i64 %178
  %180 = getelementptr inbounds %struct.student, %struct.student* %179, i32 0, i32 0
  %181 = load i32, i32* %180, align 16
  %182 = load i32, i32* %5, align 4
  %183 = sext i32 %182 to i64
  %184 = getelementptr inbounds [3 x %struct.student], [3 x %struct.student]* %3, i64 0, i64 %183
  %185 = getelementptr inbounds %struct.student, %struct.student* %184, i32 0, i32 3
  %186 = load i32, i32* %185, align 4
  %187 = call i32 (i8*, ...) @printf(i8* getelementptr inbounds ([7 x i8], [7 x i8]* @.str.2, i64 0, i64 0), i32 %181, i32 %186)
  br label %188

188:                                              ; preds = %176
  %189 = load i32, i32* %5, align 4
  %190 = add nsw i32 %189, 1
  store i32 %190, i32* %5, align 4
  br label %173

191:                                              ; preds = %173
  ret i32 0
}

; Function Attrs: argmemonly nounwind willreturn
declare void @llvm.memset.p0i8.i64(i8* nocapture writeonly, i8, i64, i1 immarg) #1

declare dso_local i32 @__isoc99_scanf(i8*, ...) #2

; Function Attrs: argmemonly nounwind willreturn
declare void @llvm.memcpy.p0i8.p0i8.i64(i8* noalias nocapture writeonly, i8* noalias nocapture readonly, i64, i1 immarg) #1

declare dso_local i32 @printf(i8*, ...) #2


!llvm.module.flags = !{!0}
!llvm.ident = !{!1}

!0 = !{i32 1, !"wchar_size", i32 4}
!1 = !{!"clang version 10.0.0-4ubuntu1 "}
